target datalayout = "e-m:e-p270:32:32-p271:32:32-p272:64:64-i64:64-i128:128-f80:128-n8:16:32:64-S128"
target triple = "x86_64-unknown-linux-gnu"

%struct.rcu_head = type { ptr, ptr }
%struct.QTailQLink = type { ptr, ptr }
%struct.VirtioBusClass = type { %struct.BusClass, ptr, ptr, ptr, ptr, ptr, ptr, ptr, ptr, ptr, ptr, ptr, ptr, ptr, ptr, ptr, ptr, ptr, ptr, ptr, ptr, i8, ptr, ptr }
%struct.BusClass = type { %struct.ObjectClass, ptr, ptr, ptr, ptr, ptr, ptr, ptr, i32, i32 }
%struct.ObjectClass = type { ptr, ptr, [4 x ptr], [4 x ptr], ptr, ptr }
%struct.BusState = type { %struct.Object, ptr, ptr, ptr, i32, i8, i8, i32, %union.BusChildHead, %struct.BusStateEntry, %struct.ResettableState }
%struct.Object = type { ptr, ptr, ptr, i32, ptr }
%union.BusChildHead = type { %struct.QTailQLink }
%struct.BusStateEntry = type { ptr, ptr }
%struct.ResettableState = type { i32, i8, i8 }
%struct.VirtioBusState = type { %struct.BusState, i8, i32 }
%struct.BusChild = type { %struct.rcu_head, ptr, i32, %union.anon.4 }
%union.anon.4 = type { %struct.QTailQLink }

@.str.6 = private unnamed_addr constant [43 x i8] c"%s: unable to init event notifier: %s (%d)\00", align 1
@__func__.virtio_bus_set_host_notifier = private unnamed_addr constant [29 x i8] c"virtio_bus_set_host_notifier\00", align 1
@.str.7 = private unnamed_addr constant [35 x i8] c"%s: unable to assign ioeventfd: %d\00", align 1
@.str.8 = private unnamed_addr constant [7 x i8] c"device\00", align 1
@.str.9 = private unnamed_addr constant [101 x i8] c"/home/dtcxzyw/WorkSpace/Projects/compilers/llvm-opt-benchmark/bench/qemu/qemu/include/hw/qdev-core.h\00", align 1
@__func__.DEVICE = private unnamed_addr constant [7 x i8] c"DEVICE\00", align 1
@.str.10 = private unnamed_addr constant [4 x i8] c"bus\00", align 1
@__func__.BUS = private unnamed_addr constant [4 x i8] c"BUS\00", align 1
@.str.11 = private unnamed_addr constant [11 x i8] c"virtio-bus\00", align 1
@.str.12 = private unnamed_addr constant [109 x i8] c"/home/dtcxzyw/WorkSpace/Projects/compilers/llvm-opt-benchmark/bench/qemu/qemu/include/hw/virtio/virtio-bus.h\00", align 1
@__func__.VIRTIO_BUS_GET_CLASS = private unnamed_addr constant [21 x i8] c"VIRTIO_BUS_GET_CLASS\00", align 1

; Function Attrs: nounwind sspstrong uwtable
define dso_local void @virtio_bus_cleanup_host_notifier(ptr noundef %bus, i32 noundef %n) #0 {
entry:
  %bus.addr = alloca ptr, align 8
  %n.addr = alloca i32, align 4
  %vdev = alloca ptr, align 8
  %vq = alloca ptr, align 8
  %notifier = alloca ptr, align 8
  store ptr %bus, ptr %bus.addr, align 8
  store i32 %n, ptr %n.addr, align 4
  %0 = load ptr, ptr %bus.addr, align 8
  %call = call ptr @virtio_bus_get_device(ptr noundef %0)
  store ptr %call, ptr %vdev, align 8
  %1 = load ptr, ptr %vdev, align 8
  %2 = load i32, ptr %n.addr, align 4
  %call1 = call ptr @virtio_get_queue(ptr noundef %1, i32 noundef %2)
  store ptr %call1, ptr %vq, align 8
  %3 = load ptr, ptr %vq, align 8
  %call2 = call ptr @virtio_queue_get_host_notifier(ptr noundef %3)
  store ptr %call2, ptr %notifier, align 8
  %4 = load ptr, ptr %notifier, align 8
  call void @virtio_queue_host_notifier_read(ptr noundef %4)
  %5 = load ptr, ptr %notifier, align 8
  call void @event_notifier_cleanup(ptr noundef %5)
  ret void
}

; Function Attrs: nounwind sspstrong uwtable
define internal ptr @DEVICE(ptr noundef %obj) #0 {
entry:
  %obj.addr = alloca ptr, align 8
  store ptr %obj, ptr %obj.addr, align 8
  %0 = load ptr, ptr %obj.addr, align 8
  %call = call ptr @object_dynamic_cast_assert(ptr noundef %0, ptr noundef @.str.8, ptr noundef @.str.9, i32 noundef 77, ptr noundef @__func__.DEVICE)
  ret ptr %call
}

; Function Attrs: nounwind sspstrong uwtable
define internal ptr @BUS(ptr noundef %obj) #0 {
entry:
  %obj.addr = alloca ptr, align 8
  store ptr %obj, ptr %obj.addr, align 8
  %0 = load ptr, ptr %obj.addr, align 8
  %call = call ptr @object_dynamic_cast_assert(ptr noundef %0, ptr noundef @.str.10, ptr noundef @.str.9, i32 noundef 316, ptr noundef @__func__.BUS)
  ret ptr %call
}

; Function Attrs: nounwind sspstrong uwtable
define internal ptr @VIRTIO_BUS_GET_CLASS(ptr noundef %obj) #0 {
entry:
  %obj.addr = alloca ptr, align 8
  store ptr %obj, ptr %obj.addr, align 8
  %0 = load ptr, ptr %obj.addr, align 8
  %call = call ptr @object_get_class(ptr noundef %0)
  %call1 = call ptr @object_class_dynamic_cast_assert(ptr noundef %call, ptr noundef @.str.11, ptr noundef @.str.12, i32 noundef 36, ptr noundef @__func__.VIRTIO_BUS_GET_CLASS)
  ret ptr %call1
}

; Function Attrs: nounwind sspstrong uwtable
define internal ptr @virtio_bus_get_device(ptr noundef %bus) #0 {
entry:
  %bus.addr = alloca ptr, align 8
  %qbus = alloca ptr, align 8
  %kid = alloca ptr, align 8
  %qdev = alloca ptr, align 8
  store ptr %bus, ptr %bus.addr, align 8
  %0 = load ptr, ptr %bus.addr, align 8
  %parent_obj = getelementptr inbounds %struct.VirtioBusState, ptr %0, i32 0, i32 0
  store ptr %parent_obj, ptr %qbus, align 8
  %1 = load ptr, ptr %qbus, align 8
  %children = getelementptr inbounds %struct.BusState, ptr %1, i32 0, i32 8
  %2 = load ptr, ptr %children, align 8
  store ptr %2, ptr %kid, align 8
  %3 = load ptr, ptr %kid, align 8
  %tobool = icmp ne ptr %3, null
  br i1 %tobool, label %cond.true, label %cond.false

cond.true:                                        ; preds = %entry
  %4 = load ptr, ptr %kid, align 8
  %child = getelementptr inbounds %struct.BusChild, ptr %4, i32 0, i32 1
  %5 = load ptr, ptr %child, align 8
  br label %cond.end

cond.false:                                       ; preds = %entry
  br label %cond.end

cond.end:                                         ; preds = %cond.false, %cond.true
  %cond = phi ptr [ %5, %cond.true ], [ null, %cond.false ]
  store ptr %cond, ptr %qdev, align 8
  %6 = load ptr, ptr %qdev, align 8
  ret ptr %6
}

; Function Attrs: nounwind sspstrong uwtable
define dso_local i32 @virtio_bus_set_host_notifier(ptr noundef %bus, i32 noundef %n, i1 noundef zeroext %assign) #0 {
entry:
  %retval = alloca i32, align 4
  %bus.addr = alloca ptr, align 8
  %n.addr = alloca i32, align 4
  %assign.addr = alloca i8, align 1
  %vdev = alloca ptr, align 8
  %k = alloca ptr, align 8
  %proxy = alloca ptr, align 8
  %vq = alloca ptr, align 8
  %notifier = alloca ptr, align 8
  %r = alloca i32, align 4
  store ptr %bus, ptr %bus.addr, align 8
  store i32 %n, ptr %n.addr, align 4
  %frombool = zext i1 %assign to i8
  store i8 %frombool, ptr %assign.addr, align 1
  %0 = load ptr, ptr %bus.addr, align 8
  %call = call ptr @virtio_bus_get_device(ptr noundef %0)
  store ptr %call, ptr %vdev, align 8
  %1 = load ptr, ptr %bus.addr, align 8
  %call1 = call ptr @VIRTIO_BUS_GET_CLASS(ptr noundef %1)
  store ptr %call1, ptr %k, align 8
  %2 = load ptr, ptr %bus.addr, align 8
  %call2 = call ptr @BUS(ptr noundef %2)
  %parent = getelementptr inbounds %struct.BusState, ptr %call2, i32 0, i32 1
  %3 = load ptr, ptr %parent, align 8
  %call3 = call ptr @DEVICE(ptr noundef %3)
  store ptr %call3, ptr %proxy, align 8
  %4 = load ptr, ptr %vdev, align 8
  %5 = load i32, ptr %n.addr, align 4
  %call4 = call ptr @virtio_get_queue(ptr noundef %4, i32 noundef %5)
  store ptr %call4, ptr %vq, align 8
  %6 = load ptr, ptr %vq, align 8
  %call5 = call ptr @virtio_queue_get_host_notifier(ptr noundef %6)
  store ptr %call5, ptr %notifier, align 8
  store i32 0, ptr %r, align 4
  %7 = load ptr, ptr %k, align 8
  %ioeventfd_assign = getelementptr inbounds %struct.VirtioBusClass, ptr %7, i32 0, i32 19
  %8 = load ptr, ptr %ioeventfd_assign, align 8
  %tobool = icmp ne ptr %8, null
  br i1 %tobool, label %if.end, label %if.then

if.then:                                          ; preds = %entry
  store i32 -38, ptr %retval, align 4
  br label %return

if.end:                                           ; preds = %entry
  %9 = load i8, ptr %assign.addr, align 1
  %tobool6 = trunc i8 %9 to i1
  br i1 %tobool6, label %if.then7, label %if.else

if.then7:                                         ; preds = %if.end
  %10 = load ptr, ptr %notifier, align 8
  %call8 = call i32 @event_notifier_init(ptr noundef %10, i32 noundef 1)
  store i32 %call8, ptr %r, align 4
  %11 = load i32, ptr %r, align 4
  %cmp = icmp slt i32 %11, 0
  br i1 %cmp, label %if.then9, label %if.end11

if.then9:                                         ; preds = %if.then7
  %12 = load i32, ptr %r, align 4
  %sub = sub i32 0, %12
  %call10 = call ptr @strerror(i32 noundef %sub) #5
  %13 = load i32, ptr %r, align 4
  call void (ptr, ...) @error_report(ptr noundef @.str.6, ptr noundef @__func__.virtio_bus_set_host_notifier, ptr noundef %call10, i32 noundef %13)
  %14 = load i32, ptr %r, align 4
  store i32 %14, ptr %retval, align 4
  br label %return

if.end11:                                         ; preds = %if.then7
  %15 = load ptr, ptr %k, align 8
  %ioeventfd_assign12 = getelementptr inbounds %struct.VirtioBusClass, ptr %15, i32 0, i32 19
  %16 = load ptr, ptr %ioeventfd_assign12, align 8
  %17 = load ptr, ptr %proxy, align 8
  %18 = load ptr, ptr %notifier, align 8
  %19 = load i32, ptr %n.addr, align 4
  %call13 = call i32 %16(ptr noundef %17, ptr noundef %18, i32 noundef %19, i1 noundef zeroext true)
  store i32 %call13, ptr %r, align 4
  %20 = load i32, ptr %r, align 4
  %cmp14 = icmp slt i32 %20, 0
  br i1 %cmp14, label %if.then15, label %if.end16

if.then15:                                        ; preds = %if.end11
  %21 = load i32, ptr %r, align 4
  call void (ptr, ...) @error_report(ptr noundef @.str.7, ptr noundef @__func__.virtio_bus_set_host_notifier, i32 noundef %21)
  %22 = load ptr, ptr %bus.addr, align 8
  %23 = load i32, ptr %n.addr, align 4
  call void @virtio_bus_cleanup_host_notifier(ptr noundef %22, i32 noundef %23)
  br label %if.end16

if.end16:                                         ; preds = %if.then15, %if.end11
  br label %if.end19

if.else:                                          ; preds = %if.end
  %24 = load ptr, ptr %k, align 8
  %ioeventfd_assign17 = getelementptr inbounds %struct.VirtioBusClass, ptr %24, i32 0, i32 19
  %25 = load ptr, ptr %ioeventfd_assign17, align 8
  %26 = load ptr, ptr %proxy, align 8
  %27 = load ptr, ptr %notifier, align 8
  %28 = load i32, ptr %n.addr, align 4
  %call18 = call i32 %25(ptr noundef %26, ptr noundef %27, i32 noundef %28, i1 noundef zeroext false)
  br label %if.end19

if.end19:                                         ; preds = %if.else, %if.end16
  %29 = load i32, ptr %r, align 4
  %cmp20 = icmp eq i32 %29, 0
  br i1 %cmp20, label %if.then21, label %if.end23

if.then21:                                        ; preds = %if.end19
  %30 = load ptr, ptr %vq, align 8
  %31 = load i8, ptr %assign.addr, align 1
  %tobool22 = trunc i8 %31 to i1
  call void @virtio_queue_set_host_notifier_enabled(ptr noundef %30, i1 noundef zeroext %tobool22)
  br label %if.end23

if.end23:                                         ; preds = %if.then21, %if.end19
  %32 = load i32, ptr %r, align 4
  store i32 %32, ptr %retval, align 4
  br label %return

return:                                           ; preds = %if.end23, %if.then9, %if.then
  %33 = load i32, ptr %retval, align 4
  ret i32 %33
}