; Function Attrs: nounwind sspstrong uwtable
define dso_local i32 @virtio_bus_set_host_notifier(ptr noundef %bus, i32 noundef %n, i1 noundef zeroext %assign) local_unnamed_addr #0 {
entry:
  %0 = getelementptr i8, ptr %bus, i64 80
  %bus.val = load ptr, ptr %0, align 8
  %tobool.not.i = icmp eq ptr %bus.val, null
  br i1 %tobool.not.i, label %virtio_bus_get_device.exit, label %cond.true.i

cond.true.i:                                      ; preds = %entry
  %child.i = getelementptr inbounds nuw i8, ptr %bus.val, i64 16
  %1 = load ptr, ptr %child.i, align 8
  br label %virtio_bus_get_device.exit

virtio_bus_get_device.exit:                       ; preds = %entry, %cond.true.i
  %cond.i = phi ptr [ %1, %cond.true.i ], [ null, %entry ]
  %call.i = tail call ptr @object_get_class(ptr noundef nonnull %bus) #5
  %call1.i = tail call ptr @object_class_dynamic_cast_assert(ptr noundef %call.i, ptr noundef nonnull @.str.11, ptr noundef nonnull @.str.12, i32 noundef 36, ptr noundef nonnull @__func__.VIRTIO_BUS_GET_CLASS) #5
  %call.i21 = tail call ptr @object_dynamic_cast_assert(ptr noundef nonnull %bus, ptr noundef nonnull @.str.10, ptr noundef nonnull @.str.9, i32 noundef 316, ptr noundef nonnull @__func__.BUS) #5
  %parent = getelementptr inbounds nuw i8, ptr %call.i21, i64 40
  %2 = load ptr, ptr %parent, align 8
  %call.i22 = tail call ptr @object_dynamic_cast_assert(ptr noundef %2, ptr noundef nonnull @.str.8, ptr noundef nonnull @.str.9, i32 noundef 77, ptr noundef nonnull @__func__.DEVICE) #5
  %call4 = tail call ptr @virtio_get_queue(ptr noundef %cond.i, i32 noundef %n) #5
  %call5 = tail call ptr @virtio_queue_get_host_notifier(ptr noundef %call4) #5
  %ioeventfd_assign = getelementptr inbounds nuw i8, ptr %call1.i, i64 304
  %3 = load ptr, ptr %ioeventfd_assign, align 8
  %tobool.not = icmp eq ptr %3, null
  br i1 %tobool.not, label %return, label %if.end

if.end:                                           ; preds = %virtio_bus_get_device.exit
  br i1 %assign, label %if.then7, label %if.end19.thread

if.then7:                                         ; preds = %if.end
  %call8 = tail call i32 @event_notifier_init(ptr noundef %call5, i32 noundef 1) #5
  %cmp = icmp slt i32 %call8, 0
  br i1 %cmp, label %if.then9, label %if.end11

if.then9:                                         ; preds = %if.then7
  %sub = sub i32 0, %call8
  %call10 = tail call ptr @strerror(i32 noundef %sub) #5
  tail call void (ptr, ...) @error_report(ptr noundef nonnull @.str.6, ptr noundef nonnull @__func__.virtio_bus_set_host_notifier, ptr noundef %call10, i32 noundef %call8) #5
  br label %return

if.end11:                                         ; preds = %if.then7
  %4 = load ptr, ptr %ioeventfd_assign, align 8
  %call13 = tail call i32 %4(ptr noundef %call.i22, ptr noundef %call5, i32 noundef %n, i1 noundef zeroext true) #5
  %cmp14 = icmp slt i32 %call13, 0
  br i1 %cmp14, label %if.then15, label %if.end19

if.then15:                                        ; preds = %if.end11
  tail call void (ptr, ...) @error_report(ptr noundef nonnull @.str.7, ptr noundef nonnull @__func__.virtio_bus_set_host_notifier, i32 noundef %call13) #5
  %bus.val.i = load ptr, ptr %0, align 8
  %tobool.not.i.i = icmp eq ptr %bus.val.i, null
  br i1 %tobool.not.i.i, label %if.end19.thread27, label %cond.true.i.i

cond.true.i.i:                                    ; preds = %if.then15
  %child.i.i = getelementptr inbounds nuw i8, ptr %bus.val.i, i64 16
  %5 = load ptr, ptr %child.i.i, align 8
  br label %if.end19.thread27

if.end19.thread27:                                ; preds = %cond.true.i.i, %if.then15
  %cond.i.i = phi ptr [ %5, %cond.true.i.i ], [ null, %if.then15 ]
  %call1.i23 = tail call ptr @virtio_get_queue(ptr noundef %cond.i.i, i32 noundef %n) #5
  %call2.i = tail call ptr @virtio_queue_get_host_notifier(ptr noundef %call1.i23) #5
  tail call void @virtio_queue_host_notifier_read(ptr noundef %call2.i) #5
  tail call void @event_notifier_cleanup(ptr noundef %call2.i) #5
  br label %return

if.end19.thread:                                  ; preds = %if.end
  %call18 = tail call i32 %3(ptr noundef %call.i22, ptr noundef %call5, i32 noundef %n, i1 noundef zeroext false) #5
  br label %if.then21

if.end19:                                         ; preds = %if.end11
  %cmp20 = icmp eq i32 %call13, 0
  br i1 %cmp20, label %if.then21, label %return

if.then21:                                        ; preds = %if.end19.thread, %if.end19
  tail call void @virtio_queue_set_host_notifier_enabled(ptr noundef %call4, i1 noundef zeroext %assign) #5
  br label %return

return:                                           ; preds = %if.end19.thread27, %if.end19, %if.then21, %virtio_bus_get_device.exit, %if.then9
  %retval.0 = phi i32 [ %call8, %if.then9 ], [ -38, %virtio_bus_get_device.exit ], [ 0, %if.then21 ], [ %call13, %if.end19 ], [ %call13, %if.end19.thread27 ]
  ret i32 %retval.0
}